target datalayout = "e-m:e-p270:32:32-p271:32:32-p272:64:64-i64:64-i128:128-f80:128-n8:16:32:64-S128"
target triple = "x86_64-pc-linux-gnu"

%struct.PageHeaderData = type { %struct.PageXLogRecPtr, i16, i16, i16, i16, i16, i16, i32, [0 x %struct.ItemIdData] }
%struct.PageXLogRecPtr = type { i32, i32 }
%struct.ItemIdData = type { i32 }

; Function Attrs: inlinehint nounwind uwtable
define internal ptr @PageGetItem(ptr noundef %0, ptr noundef %1) #2 {
  %3 = alloca ptr, align 8
  %4 = alloca ptr, align 8
  store ptr %0, ptr %3, align 8
  store ptr %1, ptr %4, align 8
  %5 = load ptr, ptr %3, align 8
  %6 = load ptr, ptr %4, align 8
  %7 = load i32, ptr %6, align 4
  %8 = and i32 %7, 32767
  %9 = sext i32 %8 to i64
  %10 = getelementptr inbounds i8, ptr %5, i64 %9
  ret ptr %10
}

; Function Attrs: inlinehint nounwind uwtable
define internal ptr @PageGetItemId(ptr noundef %0, i16 noundef zeroext %1) #2 {
  %3 = alloca ptr, align 8
  %4 = alloca i16, align 2
  store ptr %0, ptr %3, align 8
  store i16 %1, ptr %4, align 2
  %5 = load ptr, ptr %3, align 8
  %6 = getelementptr inbounds nuw %struct.PageHeaderData, ptr %5, i32 0, i32 8
  %7 = load i16, ptr %4, align 2
  %8 = zext i16 %7 to i32
  %9 = sub i32 %8, 1
  %10 = sext i32 %9 to i64
  %11 = getelementptr inbounds [0 x %struct.ItemIdData], ptr %6, i64 0, i64 %10
  ret ptr %11
}

; Function Attrs: inlinehint nounwind uwtable
define internal zeroext i16 @PageGetMaxOffsetNumber(ptr noundef %0) #2 {
  %2 = alloca i16, align 2
  %3 = alloca ptr, align 8
  %4 = alloca ptr, align 8
  %5 = alloca i32, align 4
  store ptr %0, ptr %3, align 8
  call void @llvm.lifetime.start.p0(i64 8, ptr %4) #8
  %6 = load ptr, ptr %3, align 8
  store ptr %6, ptr %4, align 8
  %7 = load ptr, ptr %4, align 8
  %8 = getelementptr inbounds nuw %struct.PageHeaderData, ptr %7, i32 0, i32 3
  %9 = load i16, ptr %8, align 4
  %10 = zext i16 %9 to i64
  %11 = icmp ule i64 %10, 24
  br i1 %11, label %12, label %13

12:                                               ; preds = %1
  store i16 0, ptr %2, align 2
  store i32 1, ptr %5, align 4
  br label %21

13:                                               ; preds = %1
  %14 = load ptr, ptr %4, align 8
  %15 = getelementptr inbounds nuw %struct.PageHeaderData, ptr %14, i32 0, i32 3
  %16 = load i16, ptr %15, align 4
  %17 = zext i16 %16 to i64
  %18 = sub i64 %17, 24
  %19 = udiv i64 %18, 4
  %20 = trunc i64 %19 to i16
  store i16 %20, ptr %2, align 2
  store i32 1, ptr %5, align 4
  br label %21

21:                                               ; preds = %13, %12
  call void @llvm.lifetime.end.p0(i64 8, ptr %4) #8
  %22 = load i16, ptr %2, align 2
  ret i16 %22
}

; Function Attrs: nounwind uwtable
define dso_local ptr @gistextractpage(ptr noundef %0, ptr noundef %1) #0 {
  %3 = alloca ptr, align 8
  %4 = alloca ptr, align 8
  %5 = alloca i16, align 2
  %6 = alloca i16, align 2
  %7 = alloca ptr, align 8
  store ptr %0, ptr %3, align 8
  store ptr %1, ptr %4, align 8
  call void @llvm.lifetime.start.p0(i64 2, ptr %5) #8
  call void @llvm.lifetime.start.p0(i64 2, ptr %6) #8
  call void @llvm.lifetime.start.p0(i64 8, ptr %7) #8
  %8 = load ptr, ptr %3, align 8
  %9 = call zeroext i16 @PageGetMaxOffsetNumber(ptr noundef %8)
  store i16 %9, ptr %6, align 2
  %10 = load i16, ptr %6, align 2
  %11 = zext i16 %10 to i32
  %12 = load ptr, ptr %4, align 8
  store i32 %11, ptr %12, align 4
  %13 = load i16, ptr %6, align 2
  %14 = zext i16 %13 to i64
  %15 = mul i64 8, %14
  %16 = call ptr @palloc(i64 noundef %15)
  store ptr %16, ptr %7, align 8
  store i16 1, ptr %5, align 2
  br label %17

17:                                               ; preds = %35, %2
  %18 = load i16, ptr %5, align 2
  %19 = zext i16 %18 to i32
  %20 = load i16, ptr %6, align 2
  %21 = zext i16 %20 to i32
  %22 = icmp sle i32 %19, %21
  br i1 %22, label %23, label %40

23:                                               ; preds = %17
  %24 = load ptr, ptr %3, align 8
  %25 = load ptr, ptr %3, align 8
  %26 = load i16, ptr %5, align 2
  %27 = call ptr @PageGetItemId(ptr noundef %25, i16 noundef zeroext %26)
  %28 = call ptr @PageGetItem(ptr noundef %24, ptr noundef %27)
  %29 = load ptr, ptr %7, align 8
  %30 = load i16, ptr %5, align 2
  %31 = zext i16 %30 to i32
  %32 = sub i32 %31, 1
  %33 = sext i32 %32 to i64
  %34 = getelementptr inbounds ptr, ptr %29, i64 %33
  store ptr %28, ptr %34, align 8
  br label %35

35:                                               ; preds = %23
  %36 = load i16, ptr %5, align 2
  %37 = zext i16 %36 to i32
  %38 = add i32 1, %37
  %39 = trunc i32 %38 to i16
  store i16 %39, ptr %5, align 2
  br label %17, !llvm.loop !8

40:                                               ; preds = %17
  %41 = load ptr, ptr %7, align 8
  call void @llvm.lifetime.end.p0(i64 8, ptr %7) #8
  call void @llvm.lifetime.end.p0(i64 2, ptr %6) #8
  call void @llvm.lifetime.end.p0(i64 2, ptr %5) #8
  ret ptr %41
}