; Function Attrs: nounwind uwtable
define dso_local ptr @gistextractpage(ptr noundef %0, ptr noundef writeonly captures(none) initializes((0, 4)) %1) local_unnamed_addr #0 {
  %3 = getelementptr i8, ptr %0, i64 12
  %.val = load i16, ptr %3, align 4
  %4 = icmp ult i16 %.val, 25
  %5 = zext i16 %.val to i32
  %6 = add nuw nsw i32 %5, 262120
  %7 = lshr i32 %6, 2
  %8 = trunc i32 %7 to i16
  %.0.i = select i1 %4, i16 0, i16 %8
  %9 = zext nneg i16 %.0.i to i32
  store i32 %9, ptr %1, align 4
  %10 = zext nneg i16 %.0.i to i64
  %11 = shl nuw nsw i64 %10, 3
  %12 = tail call ptr @palloc(i64 noundef %11) #11
  %invariant.gep = getelementptr i8, ptr %12, i64 -8
  %.not14 = icmp eq i16 %.0.i, 0
  br i1 %.not14, label %._crit_edge, label %.lr.ph

.lr.ph:                                           ; preds = %2
  %13 = getelementptr inbounds nuw i8, ptr %0, i64 24
  %14 = add nsw i16 %.0.i, 1
  %umax = tail call i16 @llvm.umax.i16(i16 %14, i16 2)
  %wide.trip.count = zext i16 %umax to i64
  br label %15

15:                                               ; preds = %.lr.ph, %15
  %indvars.iv = phi i64 [ 1, %.lr.ph ], [ %indvars.iv.next, %15 ]
  %16 = add nsw i64 %indvars.iv, -1
  %17 = getelementptr inbounds [0 x %struct.ItemIdData], ptr %13, i64 0, i64 %16
  %.val13 = load i32, ptr %17, align 4
  %18 = and i32 %.val13, 32767
  %19 = zext nneg i32 %18 to i64
  %20 = getelementptr inbounds nuw i8, ptr %0, i64 %19
  %gep = getelementptr ptr, ptr %invariant.gep, i64 %indvars.iv
  store ptr %20, ptr %gep, align 8
  %indvars.iv.next = add nuw nsw i64 %indvars.iv, 1
  %exitcond = icmp eq i64 %indvars.iv.next, %wide.trip.count
  br i1 %exitcond, label %._crit_edge, label %15, !llvm.loop !8

._crit_edge:                                      ; preds = %15, %2
  ret ptr %12
}